Certificate:
    Data:
        Version: 3 (0x2)
        Serial Number:
            93:21:5a:ca:85:8c:41:d4
    Signature Algorithm: sha256WithRSAEncryption
        Issuer: C=SK, ST=Bratislava, O=Internet Widgits Pty Ltd, CN=michalklempa.com
        Validity
            Not Before: Apr 11 19:27:20 2019 GMT
            Not After : Apr 10 19:27:20 2020 GMT
        Subject: C=SK, ST=Bratislava, O=Internet Widgits Pty Ltd, CN=client
        Subject Public Key Info:
            Public Key Algorithm: rsaEncryption
                Public-Key: (2048 bit)
                Modulus:
                    00:ba:1f:2d:8f:23:90:6e:10:15:5d:fb:a2:ea:c9:
                    7f:c2:ee:97:ee:9a:38:af:fc:c9:1d:16:b2:b5:08:
                    fc:a7:df:34:f8:dc:19:b5:29:89:e3:69:b1:4e:5c:
                    34:1b:17:7f:a5:e8:d8:a4:ab:61:5d:69:5e:1c:83:
                    60:42:f2:bb:21:24:06:80:28:57:60:aa:5a:57:08:
                    b8:01:00:f4:d7:e8:ba:04:5e:2c:54:d3:0d:5e:bb:
                    fc:ca:ce:7e:35:e6:db:04:24:92:5c:f4:8d:e0:50:
                    dd:7c:c0:10:ff:63:51:3d:05:8b:3e:52:aa:b5:42:
                    07:ef:61:d5:a5:91:db:5f:77:4c:ec:a4:40:92:4a:
                    c1:62:d4:23:18:87:54:b1:4e:d1:ec:76:47:73:93:
                    c3:73:96:ed:71:a8:e7:93:24:36:6c:4a:6e:27:28:
                    f2:7e:d9:ae:e4:44:df:e5:05:1c:d1:11:63:fa:ee:
                    0a:e5:c4:f4:ed:90:e8:eb:15:fd:e5:e9:df:a7:99:
                    e8:70:06:5f:aa:a9:ca:e1:9a:2d:b6:bf:48:69:24:
                    fc:c2:43:d3:5a:28:a7:78:e0:4e:3a:eb:1e:a9:2a:
                    e8:b6:90:cb:7a:24:8b:84:6d:10:66:54:9d:a9:cb:
                    1d:aa:10:c3:77:62:82:b4:21:85:a7:74:15:c1:83:
                    98:0f
                Exponent: 65537 (0x10001)
        X509v3 extensions:
            X509v3 Basic Constraints: 
                CA:FALSE
            Netscape Comment: 
                OpenSSL Generated Certificate
            X509v3 Subject Key Identifier: 
                AB:20:8A:C9:C5:37:96:49:3D:3F:43:4D:DC:43:8B:DA:FE:C9:86:EE
            X509v3 Authority Key Identifier: 
                keyid:7E:E3:07:5B:42:67:FD:BC:33:30:F3:42:76:E5:B6:47:5A:07:92:9E

    Signature Algorithm: sha256WithRSAEncryption
         b7:4d:c4:ba:cd:71:8c:ae:75:71:68:b8:84:e3:4b:08:65:a5:
         b3:59:02:37:5d:a5:a9:cc:ae:e3:e0:73:a7:29:c2:64:bf:e9:
         72:23:97:90:fa:ad:8a:1f:e0:bc:b6:00:91:37:38:97:7c:3d:
         12:73:c6:3f:19:de:cc:c0:1e:52:ae:a4:68:5b:7c:2a:b4:ee:
         b6:e5:fe:a1:92:6f:86:f0:5d:07:50:d8:3c:81:6e:b7:5f:07:
         e3:34:2c:c9:0f:44:60:41:cf:cb:8f:2a:4d:70:3d:a4:fd:1e:
         0f:a9:93:eb:00:ea:fe:6e:3f:1f:4c:75:7f:ee:ff:26:c4:7b:
         19:b0:3b:7d:f4:ed:cd:8d:03:df:4b:3f:f5:17:59:de:6b:98:
         0e:0a:60:e5:b5:4c:b3:1f:15:15:ca:f8:76:35:5d:d8:5d:c9:
         cf:34:2b:4b:f2:73:8f:3c:1e:f2:ee:dd:2a:f1:e7:ae:8b:4d:
         85:6d:fb:bd:dd:da:cd:b3:cb:a7:15:63:6c:58:c1:48:19:04:
         c1:c8:69:25:b4:7d:31:39:1a:23:c2:70:ff:c7:3c:4e:5c:63:
         a4:f0:eb:ba:f7:90:32:d3:f6:fb:be:c6:10:62:82:9d:68:bc:
         1e:ee:e5:ef:84:b5:9a:2a:a2:a5:2f:ce:22:fe:ec:f6:da:4d:
         7f:7c:e3:40
-----BEGIN CERTIFICATE-----
MIIDtDCCApygAwIBAgIJAJMhWsqFjEHUMA0GCSqGSIb3DQEBCwUAMGAxCzAJBgNV
BAYTAlNLMRMwEQYDVQQIDApCcmF0aXNsYXZhMSEwHwYDVQQKDBhJbnRlcm5ldCBX
aWRnaXRzIFB0eSBMdGQxGTAXBgNVBAMMEG1pY2hhbGtsZW1wYS5jb20wHhcNMTkw
NDExMTkyNzIwWhcNMjAwNDEwMTkyNzIwWjBWMQswCQYDVQQGEwJTSzETMBEGA1UE
CAwKQnJhdGlzbGF2YTEhMB8GA1UECgwYSW50ZXJuZXQgV2lkZ2l0cyBQdHkgTHRk
MQ8wDQYDVQQDDAZjbGllbnQwggEiMA0GCSqGSIb3DQEBAQUAA4IBDwAwggEKAoIB
AQC6Hy2PI5BuEBVd+6LqyX/C7pfumjiv/MkdFrK1CPyn3zT43Bm1KYnjabFOXDQb
F3+l6Nikq2FdaV4cg2BC8rshJAaAKFdgqlpXCLgBAPTX6LoEXixU0w1eu/zKzn41
5tsEJJJc9I3gUN18wBD/Y1E9BYs+Uqq1QgfvYdWlkdtfd0zspECSSsFi1CMYh1Sx
TtHsdkdzk8Nzlu1xqOeTJDZsSm4nKPJ+2a7kRN/lBRzREWP67grlxPTtkOjrFf3l
6d+nmehwBl+qqcrhmi22v0hpJPzCQ9NaKKd44E466x6pKui2kMt6JIuEbRBmVJ2p
yx2qEMN3YoK0IYWndBXBg5gPAgMBAAGjezB5MAkGA1UdEwQCMAAwLAYJYIZIAYb4
QgENBB8WHU9wZW5TU0wgR2VuZXJhdGVkIENlcnRpZmljYXRlMB0GA1UdDgQWBBSr
IIrJxTeWST0/Q03cQ4va/smG7jAfBgNVHSMEGDAWgBR+4wdbQmf9vDMw80J25bZH
WgeSnjANBgkqhkiG9w0BAQsFAAOCAQEAt03Eus1xjK51cWi4hONLCGWls1kCN12l
qcyu4+BzpynCZL/pciOXkPqtih/gvLYAkTc4l3w9EnPGPxnezMAeUq6kaFt8KrTu
tuX+oZJvhvBdB1DYPIFut18H4zQsyQ9EYEHPy48qTXA9pP0eD6mT6wDq/m4/H0x1
f+7/JsR7GbA7ffTtzY0D30s/9RdZ3muYDgpg5bVMsx8VFcr4djVd2F3JzzQrS/Jz
jzwe8u7dKvHnrotNhW37vd3azbPLpxVjbFjBSBkEwchpJbR9MTkaI8Jw/8c8Tlxj
pPDruveQMtP2+77GEGKCnWi8Hu7l74S1miqipS/OIv7s9tpNf3zjQA==
-----END CERTIFICATE-----
