Certificate:
    Data:
        Version: 3 (0x2)
        Serial Number:
            93:21:5a:ca:85:8c:41:d3
    Signature Algorithm: sha256WithRSAEncryption
        Issuer: C=SK, ST=Bratislava, O=Internet Widgits Pty Ltd, CN=michalklempa.com
        Validity
            Not Before: Apr 10 19:20:00 2019 GMT
            Not After : Apr  9 19:20:00 2022 GMT
        Subject: C=SK, ST=Bratislava, O=Internet Widgits Pty Ltd, CN=michalklempa.com
        Subject Public Key Info:
            Public Key Algorithm: rsaEncryption
                Public-Key: (2048 bit)
                Modulus:
                    00:c8:4a:8c:dd:fb:9a:8d:75:aa:55:94:4d:a5:6f:
                    61:4d:08:e4:62:57:32:1d:e2:30:1c:3b:8b:50:09:
                    13:06:dd:b4:4d:07:84:96:e3:af:c3:7c:aa:b5:b7:
                    b1:79:51:89:46:3d:67:bb:99:7f:5f:80:cd:f6:7d:
                    b8:cc:2d:94:4b:19:6d:ba:e1:30:d9:01:eb:92:33:
                    5f:5f:13:cb:8f:1a:8f:b3:8f:78:d6:38:53:ca:b0:
                    ac:ce:e7:5a:6e:f6:e4:19:83:69:83:2c:7b:47:0b:
                    44:fc:63:42:b5:95:98:12:31:05:fb:53:fe:56:07:
                    5f:4c:48:96:9d:8a:cb:a8:56:46:dc:dc:25:71:1a:
                    fd:58:19:a5:27:e8:66:90:c4:59:cb:1a:71:6a:8b:
                    62:83:99:32:8d:aa:bb:d7:86:64:e3:67:57:34:99:
                    5f:75:c2:6a:64:54:a4:2b:ce:4c:0f:c0:2b:2a:95:
                    68:50:12:1c:af:39:d4:3b:81:c0:6b:47:3e:59:d6:
                    e6:fa:df:1b:f0:ab:67:6a:47:c8:02:29:b2:e1:33:
                    b0:d6:57:b0:58:24:20:55:b8:03:b6:03:e2:d2:0c:
                    d7:f6:6d:14:32:f9:6d:79:df:65:70:c9:03:79:d8:
                    79:7f:c0:1d:e0:65:81:f1:8b:44:ff:ea:90:5c:28:
                    fe:03
                Exponent: 65537 (0x10001)
        X509v3 extensions:
            X509v3 Subject Key Identifier: 
                7E:E3:07:5B:42:67:FD:BC:33:30:F3:42:76:E5:B6:47:5A:07:92:9E
            X509v3 Authority Key Identifier: 
                keyid:7E:E3:07:5B:42:67:FD:BC:33:30:F3:42:76:E5:B6:47:5A:07:92:9E

            X509v3 Basic Constraints: critical
                CA:TRUE
    Signature Algorithm: sha256WithRSAEncryption
         3c:1a:67:8d:a7:87:ce:d7:9e:3a:4f:1d:18:26:6c:ad:69:6d:
         2f:75:8b:16:c4:91:9e:5d:3f:e1:a6:c0:e9:4f:bf:21:43:65:
         5a:98:0b:90:9a:30:54:c3:c1:63:ce:e7:21:d1:59:a7:56:13:
         ad:a3:be:3f:cf:25:81:fc:29:04:70:7f:88:cc:00:30:7d:b4:
         48:62:e7:6e:92:44:06:75:bc:e0:3d:bb:bd:be:a5:0b:27:09:
         44:4b:d4:38:54:11:11:9e:1b:33:b0:64:da:bd:61:4e:57:d8:
         14:4c:68:a5:6e:59:42:b4:e0:1e:ed:a3:6d:81:01:41:9d:36:
         3a:11:27:51:6b:86:97:01:80:fb:78:9d:10:6c:4d:82:ab:b8:
         2e:03:c8:21:b6:55:15:e2:0e:c4:5b:59:7d:91:d5:cc:cd:65:
         44:4e:5f:f5:15:bc:27:23:e6:cf:9b:d2:d2:ed:ab:9b:e4:91:
         86:62:f5:bd:0b:d3:00:e8:ac:c5:c9:38:18:2f:be:e5:67:54:
         2f:2f:b5:15:86:30:96:6d:58:61:0d:e8:09:9a:66:2e:7a:d5:
         12:da:17:f0:c2:43:3a:ba:7c:72:df:50:cb:8c:fd:c6:80:93:
         5b:16:ad:07:d9:d9:5d:82:6e:13:a4:27:1c:c8:cf:2c:1f:32:
         42:b8:d8:d7
-----BEGIN CERTIFICATE-----
MIIDljCCAn6gAwIBAgIJAJMhWsqFjEHTMA0GCSqGSIb3DQEBCwUAMGAxCzAJBgNV
BAYTAlNLMRMwEQYDVQQIDApCcmF0aXNsYXZhMSEwHwYDVQQKDBhJbnRlcm5ldCBX
aWRnaXRzIFB0eSBMdGQxGTAXBgNVBAMMEG1pY2hhbGtsZW1wYS5jb20wHhcNMTkw
NDEwMTkyMDAwWhcNMjIwNDA5MTkyMDAwWjBgMQswCQYDVQQGEwJTSzETMBEGA1UE
CAwKQnJhdGlzbGF2YTEhMB8GA1UECgwYSW50ZXJuZXQgV2lkZ2l0cyBQdHkgTHRk
MRkwFwYDVQQDDBBtaWNoYWxrbGVtcGEuY29tMIIBIjANBgkqhkiG9w0BAQEFAAOC
AQ8AMIIBCgKCAQEAyEqM3fuajXWqVZRNpW9hTQjkYlcyHeIwHDuLUAkTBt20TQeE
luOvw3yqtbexeVGJRj1nu5l/X4DN9n24zC2USxltuuEw2QHrkjNfXxPLjxqPs494
1jhTyrCszudabvbkGYNpgyx7RwtE/GNCtZWYEjEF+1P+VgdfTEiWnYrLqFZG3Nwl
cRr9WBmlJ+hmkMRZyxpxaotig5kyjaq714Zk42dXNJlfdcJqZFSkK85MD8ArKpVo
UBIcrznUO4HAa0c+Wdbm+t8b8KtnakfIAimy4TOw1lewWCQgVbgDtgPi0gzX9m0U
Mvlted9lcMkDedh5f8Ad4GWB8YtE/+qQXCj+AwIDAQABo1MwUTAdBgNVHQ4EFgQU
fuMHW0Jn/bwzMPNCduW2R1oHkp4wHwYDVR0jBBgwFoAUfuMHW0Jn/bwzMPNCduW2
R1oHkp4wDwYDVR0TAQH/BAUwAwEB/zANBgkqhkiG9w0BAQsFAAOCAQEAPBpnjaeH
zteeOk8dGCZsrWltL3WLFsSRnl0/4abA6U+/IUNlWpgLkJowVMPBY87nIdFZp1YT
raO+P88lgfwpBHB/iMwAMH20SGLnbpJEBnW84D27vb6lCycJREvUOFQREZ4bM7Bk
2r1hTlfYFExopW5ZQrTgHu2jbYEBQZ02OhEnUWuGlwGA+3idEGxNgqu4LgPIIbZV
FeIOxFtZfZHVzM1lRE5f9RW8JyPmz5vS0u2rm+SRhmL1vQvTAOisxck4GC++5WdU
Ly+1FYYwlm1YYQ3oCZpmLnrVEtoX8MJDOrp8ct9Qy4z9xoCTWxatB9nZXYJuE6Qn
HMjPLB8yQrjY1w==
-----END CERTIFICATE-----
