Certificate:
    Data:
        Version: 3 (0x2)
        Serial Number:
            93:21:5a:ca:85:8c:41:d5
    Signature Algorithm: sha256WithRSAEncryption
        Issuer: C=SK, ST=Bratislava, O=Internet Widgits Pty Ltd, CN=michalklempa.com
        Validity
            Not Before: Apr 11 19:41:10 2019 GMT
            Not After : Apr 10 19:41:10 2020 GMT
        Subject: C=SK, ST=Bratislava, O=Internet Widgits Pty Ltd, CN=server
        Subject Public Key Info:
            Public Key Algorithm: rsaEncryption
                Public-Key: (2048 bit)
                Modulus:
                    00:ae:f9:09:41:a0:87:46:fe:b0:20:f2:f8:b0:a0:
                    ab:10:ca:14:98:0c:ad:47:e9:77:78:0b:45:69:34:
                    ad:3a:5f:f3:51:55:19:fb:ed:8b:cf:1d:15:65:8b:
                    dc:e8:ae:b2:2d:8a:45:98:53:f8:c3:12:4b:52:3e:
                    0c:14:ca:77:62:08:70:92:10:7f:1a:01:63:78:9c:
                    b1:ff:64:a1:23:c6:fd:05:c1:ee:5c:3f:85:04:0f:
                    6c:29:c7:e8:57:bb:1b:07:49:15:28:0e:20:56:55:
                    43:76:0c:9a:c5:51:f9:d3:0e:07:4e:2c:7b:26:ba:
                    5e:a9:9b:a6:39:24:5d:db:bd:66:e3:de:7e:b5:c1:
                    44:cf:cb:ba:c3:0b:0b:e8:f0:c8:4f:91:34:c7:a7:
                    da:32:01:aa:c3:3c:3d:0b:80:40:d5:9f:70:22:62:
                    ee:9e:e1:8a:e4:fe:7a:ee:35:c6:55:50:68:d4:f1:
                    12:49:85:de:51:72:7a:c1:07:69:3a:2e:44:55:8b:
                    b1:c4:95:ea:f8:34:c0:71:c3:71:3f:f6:3f:e5:11:
                    fe:a3:17:4e:05:0d:c0:74:02:76:1c:1e:72:70:63:
                    7a:64:97:26:32:31:90:e3:32:78:0d:a1:51:b6:49:
                    c6:cf:34:b3:70:0d:04:75:bf:93:7f:81:bf:2f:56:
                    9b:c5
                Exponent: 65537 (0x10001)
        X509v3 extensions:
            X509v3 Basic Constraints: 
                CA:FALSE
            Netscape Comment: 
                OpenSSL Generated Certificate
            X509v3 Subject Key Identifier: 
                FB:44:2C:77:B1:04:10:F5:8F:F6:E7:35:DC:2E:39:EF:AC:07:B2:2B
            X509v3 Authority Key Identifier: 
                keyid:7E:E3:07:5B:42:67:FD:BC:33:30:F3:42:76:E5:B6:47:5A:07:92:9E

    Signature Algorithm: sha256WithRSAEncryption
         17:51:aa:5e:98:31:94:88:b2:1b:00:4f:5b:7c:6c:35:97:c3:
         d5:f6:b3:81:9d:54:41:18:5a:b7:97:39:b5:1e:5c:9f:7d:45:
         9c:71:e4:ab:fd:f0:9f:b9:37:73:e9:71:57:68:35:55:b2:70:
         ca:58:ef:77:be:36:c8:11:28:bd:3d:39:2f:39:b1:fb:18:a2:
         ea:37:cc:3a:e8:88:7d:b6:7a:44:38:94:a0:cf:73:21:0c:d0:
         2a:92:cc:e8:24:c4:26:3f:0b:7b:f5:d1:c2:1b:1c:15:19:97:
         3b:12:7d:6c:6e:a9:af:08:1b:a4:b1:4d:1d:9f:97:84:63:88:
         7a:35:c0:91:bc:33:0a:74:4b:27:03:f3:6f:40:25:29:7f:9c:
         b7:f6:53:48:2f:07:b7:24:c8:1a:29:b1:e3:23:b3:8e:9f:9e:
         da:57:7c:14:25:f3:cb:f8:69:4e:cf:fd:dd:7e:c1:73:25:3f:
         d2:07:e0:17:54:45:d3:df:24:a6:3f:74:19:9d:b2:9e:bd:21:
         5d:67:86:0a:5c:d4:dc:e6:a5:ac:4e:e4:fa:51:e2:5b:13:0d:
         33:f0:8c:d3:d6:0d:31:72:1d:89:0a:bd:2e:53:16:6d:8c:3e:
         97:bd:f4:eb:ed:52:5d:9c:31:3d:32:43:25:e1:93:70:6f:32:
         36:9e:14:36
-----BEGIN CERTIFICATE-----
MIIDtDCCApygAwIBAgIJAJMhWsqFjEHVMA0GCSqGSIb3DQEBCwUAMGAxCzAJBgNV
BAYTAlNLMRMwEQYDVQQIDApCcmF0aXNsYXZhMSEwHwYDVQQKDBhJbnRlcm5ldCBX
aWRnaXRzIFB0eSBMdGQxGTAXBgNVBAMMEG1pY2hhbGtsZW1wYS5jb20wHhcNMTkw
NDExMTk0MTEwWhcNMjAwNDEwMTk0MTEwWjBWMQswCQYDVQQGEwJTSzETMBEGA1UE
CAwKQnJhdGlzbGF2YTEhMB8GA1UECgwYSW50ZXJuZXQgV2lkZ2l0cyBQdHkgTHRk
MQ8wDQYDVQQDDAZzZXJ2ZXIwggEiMA0GCSqGSIb3DQEBAQUAA4IBDwAwggEKAoIB
AQCu+QlBoIdG/rAg8viwoKsQyhSYDK1H6Xd4C0VpNK06X/NRVRn77YvPHRVli9zo
rrItikWYU/jDEktSPgwUyndiCHCSEH8aAWN4nLH/ZKEjxv0Fwe5cP4UED2wpx+hX
uxsHSRUoDiBWVUN2DJrFUfnTDgdOLHsmul6pm6Y5JF3bvWbj3n61wUTPy7rDCwvo
8MhPkTTHp9oyAarDPD0LgEDVn3AiYu6e4Yrk/nruNcZVUGjU8RJJhd5RcnrBB2k6
LkRVi7HEler4NMBxw3E/9j/lEf6jF04FDcB0AnYcHnJwY3pklyYyMZDjMngNoVG2
ScbPNLNwDQR1v5N/gb8vVpvFAgMBAAGjezB5MAkGA1UdEwQCMAAwLAYJYIZIAYb4
QgENBB8WHU9wZW5TU0wgR2VuZXJhdGVkIENlcnRpZmljYXRlMB0GA1UdDgQWBBT7
RCx3sQQQ9Y/25zXcLjnvrAeyKzAfBgNVHSMEGDAWgBR+4wdbQmf9vDMw80J25bZH
WgeSnjANBgkqhkiG9w0BAQsFAAOCAQEAF1GqXpgxlIiyGwBPW3xsNZfD1fazgZ1U
QRhat5c5tR5cn31FnHHkq/3wn7k3c+lxV2g1VbJwyljvd742yBEovT05Lzmx+xii
6jfMOuiIfbZ6RDiUoM9zIQzQKpLM6CTEJj8Le/XRwhscFRmXOxJ9bG6prwgbpLFN
HZ+XhGOIejXAkbwzCnRLJwPzb0AlKX+ct/ZTSC8HtyTIGimx4yOzjp+e2ld8FCXz
y/hpTs/93X7BcyU/0gfgF1RF098kpj90GZ2ynr0hXWeGClzU3OalrE7k+lHiWxMN
M/CM09YNMXIdiQq9LlMWbYw+l7306+1SXZwxPTJDJeGTcG8yNp4UNg==
-----END CERTIFICATE-----
